	.section	__TEXT,__text,regular,pure_instructions
	.build_version macos, 13, 0	sdk_version 13, 3
	.globl	__Z6callerii                    ; -- Begin function _Z6callerii
	.p2align	2
__Z6callerii:                           ; @_Z6callerii
; %bb.0:
	sub	sp, sp, #32
	stp	x29, x30, [sp, #16]             ; 16-byte Folded Spill
	add	x29, sp, #16
	stur	w0, [x29, #-4]
	str	w1, [sp, #8]
	ldur	w8, [x29, #-4]
	ldr	w9, [sp, #8]
	add	w0, w8, w9
	bl	__Z6calleei
	ldp	x29, x30, [sp, #16]             ; 16-byte Folded Reload
	add	sp, sp, #32
	ret
                                        ; -- End function
	.globl	__Z6calleei                     ; -- Begin function _Z6calleei
	.p2align	2
__Z6calleei:                            ; @_Z6calleei
; %bb.0:
	sub	sp, sp, #16
	str	w0, [sp, #12]
	ldr	w8, [sp, #12]
	add	w0, w8, #1
	add	sp, sp, #16
	ret
                                        ; -- End function
	.globl	_main                           ; -- Begin function main
	.p2align	2
_main:                                  ; @main
; %bb.0:
	sub	sp, sp, #64
	stp	x29, x30, [sp, #48]             ; 16-byte Folded Spill
	add	x29, sp, #48
	stur	wzr, [x29, #-4]
	mov	w8, #1
	stur	w8, [x29, #-8]
	mov	w8, #97
	stur	w8, [x29, #-12]
	mov	w8, #97
	sturb	w8, [x29, #-13]
	add	x0, sp, #8
	str	x0, [sp]                        ; 8-byte Folded Spill
	adrp	x1, l_.str@PAGE
	add	x1, x1, l_.str@PAGEOFF
	bl	__ZNSt3__112basic_stringIcNS_11char_traitsIcEENS_9allocatorIcEEEC1B6v15006IDnEEPKc
	ldr	x0, [sp]                        ; 8-byte Folded Reload
	stur	wzr, [x29, #-4]
	bl	__ZNSt3__112basic_stringIcNS_11char_traitsIcEENS_9allocatorIcEEED1Ev
	ldur	w0, [x29, #-4]
	ldp	x29, x30, [sp, #48]             ; 16-byte Folded Reload
	add	sp, sp, #64
	ret
                                        ; -- End function
	.globl	__ZNSt3__112basic_stringIcNS_11char_traitsIcEENS_9allocatorIcEEEC1B6v15006IDnEEPKc ; -- Begin function _ZNSt3__112basic_stringIcNS_11char_traitsIcEENS_9allocatorIcEEEC1B6v15006IDnEEPKc
	.weak_def_can_be_hidden	__ZNSt3__112basic_stringIcNS_11char_traitsIcEENS_9allocatorIcEEEC1B6v15006IDnEEPKc
	.p2align	2
__ZNSt3__112basic_stringIcNS_11char_traitsIcEENS_9allocatorIcEEEC1B6v15006IDnEEPKc: ; @_ZNSt3__112basic_stringIcNS_11char_traitsIcEENS_9allocatorIcEEEC1B6v15006IDnEEPKc
; %bb.0:
	sub	sp, sp, #48
	stp	x29, x30, [sp, #32]             ; 16-byte Folded Spill
	add	x29, sp, #32
	stur	x0, [x29, #-8]
	str	x1, [sp, #16]
	ldur	x0, [x29, #-8]
	str	x0, [sp, #8]                    ; 8-byte Folded Spill
	ldr	x1, [sp, #16]
	bl	__ZNSt3__112basic_stringIcNS_11char_traitsIcEENS_9allocatorIcEEEC2B6v15006IDnEEPKc
	ldr	x0, [sp, #8]                    ; 8-byte Folded Reload
	ldp	x29, x30, [sp, #32]             ; 16-byte Folded Reload
	add	sp, sp, #48
	ret
                                        ; -- End function
	.globl	__ZNSt3__112basic_stringIcNS_11char_traitsIcEENS_9allocatorIcEEEC2B6v15006IDnEEPKc ; -- Begin function _ZNSt3__112basic_stringIcNS_11char_traitsIcEENS_9allocatorIcEEEC2B6v15006IDnEEPKc
	.weak_def_can_be_hidden	__ZNSt3__112basic_stringIcNS_11char_traitsIcEENS_9allocatorIcEEEC2B6v15006IDnEEPKc
	.p2align	2
__ZNSt3__112basic_stringIcNS_11char_traitsIcEENS_9allocatorIcEEEC2B6v15006IDnEEPKc: ; @_ZNSt3__112basic_stringIcNS_11char_traitsIcEENS_9allocatorIcEEEC2B6v15006IDnEEPKc
; %bb.0:
	sub	sp, sp, #64
	stp	x29, x30, [sp, #48]             ; 16-byte Folded Spill
	add	x29, sp, #48
	stur	x0, [x29, #-8]
	stur	x1, [x29, #-16]
	ldur	x0, [x29, #-8]
	str	x0, [sp, #16]                   ; 8-byte Folded Spill
	sub	x1, x29, #17
	sub	x2, x29, #18
	bl	__ZNSt3__117__compressed_pairINS_12basic_stringIcNS_11char_traitsIcEENS_9allocatorIcEEE5__repES5_EC1B6v15006INS_18__default_init_tagESA_EEOT_OT0_
	ldur	x8, [x29, #-16]
	str	x8, [sp, #8]                    ; 8-byte Folded Spill
	ldur	x0, [x29, #-16]
	bl	__ZNSt3__111char_traitsIcE6lengthEPKc
	ldr	x1, [sp, #8]                    ; 8-byte Folded Reload
	mov	x2, x0
	ldr	x0, [sp, #16]                   ; 8-byte Folded Reload
	bl	__ZNSt3__112basic_stringIcNS_11char_traitsIcEENS_9allocatorIcEEE6__initEPKcm
	ldr	x0, [sp, #16]                   ; 8-byte Folded Reload
	bl	__ZNSt3__119__debug_db_insert_cB6v15006INS_12basic_stringIcNS_11char_traitsIcEENS_9allocatorIcEEEEEEvPT_
	ldr	x0, [sp, #16]                   ; 8-byte Folded Reload
	ldp	x29, x30, [sp, #48]             ; 16-byte Folded Reload
	add	sp, sp, #64
	ret
                                        ; -- End function
	.globl	__ZNSt3__117__compressed_pairINS_12basic_stringIcNS_11char_traitsIcEENS_9allocatorIcEEE5__repES5_EC1B6v15006INS_18__default_init_tagESA_EEOT_OT0_ ; -- Begin function _ZNSt3__117__compressed_pairINS_12basic_stringIcNS_11char_traitsIcEENS_9allocatorIcEEE5__repES5_EC1B6v15006INS_18__default_init_tagESA_EEOT_OT0_
	.weak_def_can_be_hidden	__ZNSt3__117__compressed_pairINS_12basic_stringIcNS_11char_traitsIcEENS_9allocatorIcEEE5__repES5_EC1B6v15006INS_18__default_init_tagESA_EEOT_OT0_
	.p2align	2
__ZNSt3__117__compressed_pairINS_12basic_stringIcNS_11char_traitsIcEENS_9allocatorIcEEE5__repES5_EC1B6v15006INS_18__default_init_tagESA_EEOT_OT0_: ; @_ZNSt3__117__compressed_pairINS_12basic_stringIcNS_11char_traitsIcEENS_9allocatorIcEEE5__repES5_EC1B6v15006INS_18__default_init_tagESA_EEOT_OT0_
; %bb.0:
	sub	sp, sp, #48
	stp	x29, x30, [sp, #32]             ; 16-byte Folded Spill
	add	x29, sp, #32
	stur	x0, [x29, #-8]
	str	x1, [sp, #16]
	str	x2, [sp, #8]
	ldur	x0, [x29, #-8]
	str	x0, [sp]                        ; 8-byte Folded Spill
	ldr	x1, [sp, #16]
	ldr	x2, [sp, #8]
	bl	__ZNSt3__117__compressed_pairINS_12basic_stringIcNS_11char_traitsIcEENS_9allocatorIcEEE5__repES5_EC2B6v15006INS_18__default_init_tagESA_EEOT_OT0_
	ldr	x0, [sp]                        ; 8-byte Folded Reload
	ldp	x29, x30, [sp, #32]             ; 16-byte Folded Reload
	add	sp, sp, #48
	ret
                                        ; -- End function
	.globl	__ZNSt3__111char_traitsIcE6lengthEPKc ; -- Begin function _ZNSt3__111char_traitsIcE6lengthEPKc
	.weak_definition	__ZNSt3__111char_traitsIcE6lengthEPKc
	.p2align	2
__ZNSt3__111char_traitsIcE6lengthEPKc:  ; @_ZNSt3__111char_traitsIcE6lengthEPKc
; %bb.0:
	sub	sp, sp, #32
	stp	x29, x30, [sp, #16]             ; 16-byte Folded Spill
	add	x29, sp, #16
	str	x0, [sp, #8]
	ldr	x0, [sp, #8]
	bl	_strlen
	ldp	x29, x30, [sp, #16]             ; 16-byte Folded Reload
	add	sp, sp, #32
	ret
                                        ; -- End function
	.private_extern	__ZNSt3__119__debug_db_insert_cB6v15006INS_12basic_stringIcNS_11char_traitsIcEENS_9allocatorIcEEEEEEvPT_ ; -- Begin function _ZNSt3__119__debug_db_insert_cB6v15006INS_12basic_stringIcNS_11char_traitsIcEENS_9allocatorIcEEEEEEvPT_
	.globl	__ZNSt3__119__debug_db_insert_cB6v15006INS_12basic_stringIcNS_11char_traitsIcEENS_9allocatorIcEEEEEEvPT_
	.weak_definition	__ZNSt3__119__debug_db_insert_cB6v15006INS_12basic_stringIcNS_11char_traitsIcEENS_9allocatorIcEEEEEEvPT_
	.p2align	2
__ZNSt3__119__debug_db_insert_cB6v15006INS_12basic_stringIcNS_11char_traitsIcEENS_9allocatorIcEEEEEEvPT_: ; @_ZNSt3__119__debug_db_insert_cB6v15006INS_12basic_stringIcNS_11char_traitsIcEENS_9allocatorIcEEEEEEvPT_
; %bb.0:
	sub	sp, sp, #16
	str	x0, [sp, #8]
	add	sp, sp, #16
	ret
                                        ; -- End function
	.globl	__ZNSt3__117__compressed_pairINS_12basic_stringIcNS_11char_traitsIcEENS_9allocatorIcEEE5__repES5_EC2B6v15006INS_18__default_init_tagESA_EEOT_OT0_ ; -- Begin function _ZNSt3__117__compressed_pairINS_12basic_stringIcNS_11char_traitsIcEENS_9allocatorIcEEE5__repES5_EC2B6v15006INS_18__default_init_tagESA_EEOT_OT0_
	.weak_def_can_be_hidden	__ZNSt3__117__compressed_pairINS_12basic_stringIcNS_11char_traitsIcEENS_9allocatorIcEEE5__repES5_EC2B6v15006INS_18__default_init_tagESA_EEOT_OT0_
	.p2align	2
__ZNSt3__117__compressed_pairINS_12basic_stringIcNS_11char_traitsIcEENS_9allocatorIcEEE5__repES5_EC2B6v15006INS_18__default_init_tagESA_EEOT_OT0_: ; @_ZNSt3__117__compressed_pairINS_12basic_stringIcNS_11char_traitsIcEENS_9allocatorIcEEE5__repES5_EC2B6v15006INS_18__default_init_tagESA_EEOT_OT0_
; %bb.0:
	sub	sp, sp, #64
	stp	x29, x30, [sp, #48]             ; 16-byte Folded Spill
	add	x29, sp, #48
	stur	x0, [x29, #-8]
	stur	x1, [x29, #-16]
	str	x2, [sp, #24]
	ldur	x0, [x29, #-8]
	str	x0, [sp, #8]                    ; 8-byte Folded Spill
	bl	__ZNSt3__122__compressed_pair_elemINS_12basic_stringIcNS_11char_traitsIcEENS_9allocatorIcEEE5__repELi0ELb0EEC2B6v15006ENS_18__default_init_tagE
	ldr	x0, [sp, #8]                    ; 8-byte Folded Reload
	bl	__ZNSt3__122__compressed_pair_elemINS_9allocatorIcEELi1ELb1EEC2B6v15006ENS_18__default_init_tagE
	ldr	x0, [sp, #8]                    ; 8-byte Folded Reload
	ldp	x29, x30, [sp, #48]             ; 16-byte Folded Reload
	add	sp, sp, #64
	ret
                                        ; -- End function
	.private_extern	__ZNSt3__122__compressed_pair_elemINS_12basic_stringIcNS_11char_traitsIcEENS_9allocatorIcEEE5__repELi0ELb0EEC2B6v15006ENS_18__default_init_tagE ; -- Begin function _ZNSt3__122__compressed_pair_elemINS_12basic_stringIcNS_11char_traitsIcEENS_9allocatorIcEEE5__repELi0ELb0EEC2B6v15006ENS_18__default_init_tagE
	.globl	__ZNSt3__122__compressed_pair_elemINS_12basic_stringIcNS_11char_traitsIcEENS_9allocatorIcEEE5__repELi0ELb0EEC2B6v15006ENS_18__default_init_tagE
	.weak_def_can_be_hidden	__ZNSt3__122__compressed_pair_elemINS_12basic_stringIcNS_11char_traitsIcEENS_9allocatorIcEEE5__repELi0ELb0EEC2B6v15006ENS_18__default_init_tagE
	.p2align	2
__ZNSt3__122__compressed_pair_elemINS_12basic_stringIcNS_11char_traitsIcEENS_9allocatorIcEEE5__repELi0ELb0EEC2B6v15006ENS_18__default_init_tagE: ; @_ZNSt3__122__compressed_pair_elemINS_12basic_stringIcNS_11char_traitsIcEENS_9allocatorIcEEE5__repELi0ELb0EEC2B6v15006ENS_18__default_init_tagE
; %bb.0:
	sub	sp, sp, #16
	str	x0, [sp]
	ldr	x0, [sp]
	add	sp, sp, #16
	ret
                                        ; -- End function
	.private_extern	__ZNSt3__122__compressed_pair_elemINS_9allocatorIcEELi1ELb1EEC2B6v15006ENS_18__default_init_tagE ; -- Begin function _ZNSt3__122__compressed_pair_elemINS_9allocatorIcEELi1ELb1EEC2B6v15006ENS_18__default_init_tagE
	.globl	__ZNSt3__122__compressed_pair_elemINS_9allocatorIcEELi1ELb1EEC2B6v15006ENS_18__default_init_tagE
	.weak_def_can_be_hidden	__ZNSt3__122__compressed_pair_elemINS_9allocatorIcEELi1ELb1EEC2B6v15006ENS_18__default_init_tagE
	.p2align	2
__ZNSt3__122__compressed_pair_elemINS_9allocatorIcEELi1ELb1EEC2B6v15006ENS_18__default_init_tagE: ; @_ZNSt3__122__compressed_pair_elemINS_9allocatorIcEELi1ELb1EEC2B6v15006ENS_18__default_init_tagE
; %bb.0:
	sub	sp, sp, #48
	stp	x29, x30, [sp, #32]             ; 16-byte Folded Spill
	add	x29, sp, #32
	str	x0, [sp, #16]
	ldr	x0, [sp, #16]
	str	x0, [sp, #8]                    ; 8-byte Folded Spill
	bl	__ZNSt3__19allocatorIcEC2B6v15006Ev
	ldr	x0, [sp, #8]                    ; 8-byte Folded Reload
	ldp	x29, x30, [sp, #32]             ; 16-byte Folded Reload
	add	sp, sp, #48
	ret
                                        ; -- End function
	.private_extern	__ZNSt3__19allocatorIcEC2B6v15006Ev ; -- Begin function _ZNSt3__19allocatorIcEC2B6v15006Ev
	.globl	__ZNSt3__19allocatorIcEC2B6v15006Ev
	.weak_def_can_be_hidden	__ZNSt3__19allocatorIcEC2B6v15006Ev
	.p2align	2
__ZNSt3__19allocatorIcEC2B6v15006Ev:    ; @_ZNSt3__19allocatorIcEC2B6v15006Ev
; %bb.0:
	sub	sp, sp, #32
	stp	x29, x30, [sp, #16]             ; 16-byte Folded Spill
	add	x29, sp, #16
	str	x0, [sp, #8]
	ldr	x0, [sp, #8]
	str	x0, [sp]                        ; 8-byte Folded Spill
	bl	__ZNSt3__116__non_trivial_ifILb1ENS_9allocatorIcEEEC2B6v15006Ev
	ldr	x0, [sp]                        ; 8-byte Folded Reload
	ldp	x29, x30, [sp, #16]             ; 16-byte Folded Reload
	add	sp, sp, #32
	ret
                                        ; -- End function
	.private_extern	__ZNSt3__116__non_trivial_ifILb1ENS_9allocatorIcEEEC2B6v15006Ev ; -- Begin function _ZNSt3__116__non_trivial_ifILb1ENS_9allocatorIcEEEC2B6v15006Ev
	.globl	__ZNSt3__116__non_trivial_ifILb1ENS_9allocatorIcEEEC2B6v15006Ev
	.weak_def_can_be_hidden	__ZNSt3__116__non_trivial_ifILb1ENS_9allocatorIcEEEC2B6v15006Ev
	.p2align	2
__ZNSt3__116__non_trivial_ifILb1ENS_9allocatorIcEEEC2B6v15006Ev: ; @_ZNSt3__116__non_trivial_ifILb1ENS_9allocatorIcEEEC2B6v15006Ev
; %bb.0:
	sub	sp, sp, #16
	str	x0, [sp, #8]
	ldr	x0, [sp, #8]
	add	sp, sp, #16
	ret
                                        ; -- End function
	.section	__TEXT,__cstring,cstring_literals
l_.str:                                 ; @.str
	.asciz	"abcd"

.subsections_via_symbols
